; Function Attrs: mustprogress uwtable
define noundef i32 @_ZN5dtm_t4readEj(ptr nocapture noundef nonnull align 8 dereferenceable(928) %0, i32 noundef %1) local_unnamed_addr #0 align 2 {
  %.sroa.01.0.insert.ext = zext i32 %1 to i64
  %.sroa.01.0.insert.insert = or disjoint i64 %.sroa.01.0.insert.ext, 4294967296
  %3 = getelementptr inbounds i8, ptr %0, i64 872
  store i64 %.sroa.01.0.insert.insert, ptr %3, align 8
  %.sroa.22.0..sroa_idx.i = getelementptr inbounds i8, ptr %0, i64 880
  store i32 0, ptr %.sroa.22.0..sroa_idx.i, align 8
  %4 = getelementptr inbounds i8, ptr %0, i64 728
  %5 = load ptr, ptr %4, align 8
  tail call void @_ZN9context_t9switch_toEv(ptr noundef nonnull align 8 dereferenceable(32) %5)
  %6 = getelementptr inbounds i8, ptr %0, i64 888
  %7 = load i32, ptr %6, align 8
  ret i32 %7
}